(dp0
S'neighbors'
p1
(lp2
(S'10.0.0.2'
p3
I5552
tp4
a(S'10.0.0.2'
p5
I8468
tp6
a(S'10.0.0.3'
p7
I8468
tp8
a(S'10.0.0.5'
p9
I8468
tp10
a(S'10.0.0.2'
p11
I5552
tp12
a(S'10.0.0.2'
p13
I5552
tp14
a(S'10.0.0.1'
p15
I8468
tp16
asS'alpha'
p17
I3
sS'ksize'
p18
I20
sS'id'
p19
S'\x86\x97>\x03\x86h\x1c\xd9\xe82\x86\x01\xa8\xba\xdah5LI\xca'
p20
s.