(dp0
S'neighbors'
p1
(lp2
(S'10.0.0.3'
p3
I8468
tp4
a(S'10.0.0.4'
p5
I8468
tp6
a(S'10.0.0.2'
p7
I5552
tp8
a(S'10.0.0.2'
p9
I5552
tp10
a(S'10.0.0.1'
p11
I8468
tp12
a(S'10.0.0.5'
p13
I8468
tp14
a(S'10.0.0.2'
p15
I5552
tp16
asS'alpha'
p17
I3
sS'ksize'
p18
I20
sS'id'
p19
S'\xc0\xfaz6\xca\xdb%\xcf\x841\x14\xe5\xb7F\x86?\xf7:J\xb7'
p20
s.